ARM GAS  C:\Users\davis\AppData\Local\Temp\cc0pV1lW.s 			page 1


   1              		.syntax unified
   2              		.cpu cortex-m0
   3              		.fpu softvfp
   4              		.eabi_attribute 20, 1
   5              		.eabi_attribute 21, 1
   6              		.eabi_attribute 23, 3
   7              		.eabi_attribute 24, 1
   8              		.eabi_attribute 25, 1
   9              		.eabi_attribute 26, 1
  10              		.eabi_attribute 30, 1
  11              		.eabi_attribute 34, 0
  12              		.eabi_attribute 18, 4
  13              		.thumb
  14              		.syntax unified
  15              		.file	"main.c"
  16              		.text
  17              	.Ltext0:
  18              		.cfi_sections	.debug_frame
  19              		.global	__aeabi_idiv
  20              		.section	.text.TurnOnTime,"ax",%progbits
  21              		.align	2
  22              		.global	TurnOnTime
  23              		.code	16
  24              		.thumb_func
  25              		.type	TurnOnTime, %function
  26              	TurnOnTime:
  27              	.LFB33:
  28              		.file 1 "main.c"
   1:main.c        **** /* ========================================
   2:main.c        ****  *
   3:main.c        ****  * Copyright YOUR COMPANY, THE YEAR
   4:main.c        ****  * All Rights Reserved
   5:main.c        ****  * UNPUBLISHED, LICENSED SOFTWARE.
   6:main.c        ****  *
   7:main.c        ****  * CONFIDENTIAL AND PROPRIETARY INFORMATION
   8:main.c        ****  * WHICH IS THE PROPERTY OF your company.
   9:main.c        ****  *
  10:main.c        ****  * ========================================
  11:main.c        **** */
  12:main.c        **** #include "project.h"
  13:main.c        **** 
  14:main.c        **** #define PCA9685ADDY (0x40)
  15:main.c        **** 
  16:main.c        **** /* Transfer statuses */
  17:main.c        **** #define TRANSFER_CMPLT      (0x00u)
  18:main.c        **** #define TRANSFER_ERROR      (0xFFu)
  19:main.c        **** 
  20:main.c        **** #define LED0 0
  21:main.c        **** #define LED1 1
  22:main.c        **** #define LED2 2
  23:main.c        **** #define LED3 3
  24:main.c        **** #define LED4 4
  25:main.c        **** #define LED5 5
  26:main.c        **** #define LED6 6
  27:main.c        **** #define LED7 7
  28:main.c        **** #define LED8 8
  29:main.c        **** #define LED9 9
ARM GAS  C:\Users\davis\AppData\Local\Temp\cc0pV1lW.s 			page 2


  30:main.c        **** #define LED10 10
  31:main.c        **** #define LED11 11
  32:main.c        **** #define LED12 12
  33:main.c        **** #define LED13 13
  34:main.c        **** #define LED14 14
  35:main.c        **** #define LED15 15
  36:main.c        **** #define bufferSize 2
  37:main.c        **** #define RD_BUFFER_SIZE      (3u)
  38:main.c        **** 
  39:main.c        **** 
  40:main.c        **** int main(void)
  41:main.c        **** {
  42:main.c        ****     CyGlobalIntEnable; /* Enable global interrupts. */
  43:main.c        ****     int errorFlag;
  44:main.c        **** 
  45:main.c        ****     /* Place your initialization/startup code here (e.g. MyInst_Start()) */
  46:main.c        ****     I2C_Start();
  47:main.c        ****     I2C_Enable();
  48:main.c        ****     
  49:main.c        ****     /*Prototype*/
  50:main.c        ****     void ToggleLed(uint32_t PCA9685addy, int Ledn, int dutyCycle);
  51:main.c        ****     uint8 DetermineOnTime(int dutyCycle);
  52:main.c        ****     uint32 writeBuffer(uint8* buffer,uint32_t PCA9685Address, uint32_t mode);
  53:main.c        ****     
  54:main.c        ****    // I2C_I2CMasterWriteBuf();
  55:main.c        ****     uint8 buffer[5] = {0x06, 0x00, 0x00, 0x80, 0x03};
  56:main.c        ****     writeBuffer(buffer, PCA9685ADDY, I2C_I2C_MODE_COMPLETE_XFER);
  57:main.c        ****     for(;;)
  58:main.c        ****     {
  59:main.c        ****         /* Place your application code here. */
  60:main.c        ****         writeBuffer(buffer, PCA9685ADDY, I2C_I2C_MODE_COMPLETE_XFER);
  61:main.c        ****     }
  62:main.c        **** }
  63:main.c        **** 
  64:main.c        **** uint8 TurnOnTime(int dutyCycle){
  29              		.loc 1 64 0
  30              		.cfi_startproc
  31              		@ args = 0, pretend = 0, frame = 0
  32              		@ frame_needed = 0, uses_anonymous_args = 0
  33              	.LVL0:
  34 0000 10B5     		push	{r4, lr}
  35              		.cfi_def_cfa_offset 8
  36              		.cfi_offset 4, -8
  37              		.cfi_offset 14, -4
  65:main.c        ****            dutyCycle = (4095*dutyCycle)/100;
  38              		.loc 1 65 0
  39 0002 0303     		lsls	r3, r0, #12
  40 0004 181A     		subs	r0, r3, r0
  41              	.LVL1:
  42 0006 6421     		movs	r1, #100
  43 0008 FFF7FEFF 		bl	__aeabi_idiv
  44              	.LVL2:
  66:main.c        ****         return dutyCycle;
  45              		.loc 1 66 0
  46 000c C0B2     		uxtb	r0, r0
  47              	.LVL3:
  67:main.c        **** }
ARM GAS  C:\Users\davis\AppData\Local\Temp\cc0pV1lW.s 			page 3


  48              		.loc 1 67 0
  49              		@ sp needed
  50 000e 10BD     		pop	{r4, pc}
  51              		.cfi_endproc
  52              	.LFE33:
  53              		.size	TurnOnTime, .-TurnOnTime
  54              		.section	.text.writeBuffer,"ax",%progbits
  55              		.align	2
  56              		.global	writeBuffer
  57              		.code	16
  58              		.thumb_func
  59              		.type	writeBuffer, %function
  60              	writeBuffer:
  61              	.LFB34:
  68:main.c        **** 
  69:main.c        **** uint32 writeBuffer(uint8* buffer, uint32_t PCA9685Address, uint32_t mode){
  62              		.loc 1 69 0
  63              		.cfi_startproc
  64              		@ args = 0, pretend = 0, frame = 0
  65              		@ frame_needed = 0, uses_anonymous_args = 0
  66              	.LVL4:
  67 0000 70B5     		push	{r4, r5, r6, lr}
  68              		.cfi_def_cfa_offset 16
  69              		.cfi_offset 4, -16
  70              		.cfi_offset 5, -12
  71              		.cfi_offset 6, -8
  72              		.cfi_offset 14, -4
  73 0002 0500     		movs	r5, r0
  74 0004 0C00     		movs	r4, r1
  75 0006 1600     		movs	r6, r2
  76              	.LVL5:
  70:main.c        ****      uint32 status = TRANSFER_ERROR;
  71:main.c        ****     
  72:main.c        ****     (void) I2C_I2CMasterClearStatus();
  77              		.loc 1 72 0
  78 0008 FFF7FEFF 		bl	I2C_I2CMasterClearStatus
  79              	.LVL6:
  73:main.c        ****          if( I2C_I2C_MSTR_NO_ERROR ==  I2C_I2CMasterWriteBuf(PCA9685Address, buffer,
  80              		.loc 1 73 0
  81 000c 3300     		movs	r3, r6
  82 000e 0222     		movs	r2, #2
  83 0010 2900     		movs	r1, r5
  84 0012 2000     		movs	r0, r4
  85 0014 FFF7FEFF 		bl	I2C_I2CMasterWriteBuf
  86              	.LVL7:
  87 0018 0028     		cmp	r0, #0
  88 001a 0DD1     		bne	.L5
  89              	.L4:
  74:main.c        ****                                                             bufferSize, mode)){
  75:main.c        ****      /* If I2C write started without errors, 
  76:main.c        ****          * wait until I2C Master completes write transfer */
  77:main.c        ****         while (0u == (I2C_I2CMasterStatus() & I2C_I2C_MSTAT_WR_CMPLT))
  90              		.loc 1 77 0 discriminator 1
  91 001c FFF7FEFF 		bl	I2C_I2CMasterStatus
  92              	.LVL8:
  93 0020 8307     		lsls	r3, r0, #30
  94 0022 FBD5     		bpl	.L4
ARM GAS  C:\Users\davis\AppData\Local\Temp\cc0pV1lW.s 			page 4


  78:main.c        ****         {
  79:main.c        ****         }
  80:main.c        ****         
  81:main.c        ****         /* Report transfer status */
  82:main.c        ****         if (0u == (I2C_I2CMasterStatus() & I2C_I2C_MSTAT_ERR_XFER))
  95              		.loc 1 82 0
  96 0024 FFF7FEFF 		bl	I2C_I2CMasterStatus
  97              	.LVL9:
  98 0028 8305     		lsls	r3, r0, #22
  99 002a 07D4     		bmi	.L6
  83:main.c        ****         {
  84:main.c        ****             /* Check if all bytes were written */
  85:main.c        ****             if (I2C_I2CMasterGetWriteBufSize() == bufferSize)
 100              		.loc 1 85 0
 101 002c FFF7FEFF 		bl	I2C_I2CMasterGetWriteBufSize
 102              	.LVL10:
 103 0030 0228     		cmp	r0, #2
 104 0032 05D0     		beq	.L7
  70:main.c        ****     
 105              		.loc 1 70 0
 106 0034 FF20     		movs	r0, #255
 107 0036 04E0     		b	.L3
 108              	.L5:
 109 0038 FF20     		movs	r0, #255
 110 003a 02E0     		b	.L3
 111              	.L6:
 112 003c FF20     		movs	r0, #255
 113 003e 00E0     		b	.L3
 114              	.L7:
  86:main.c        ****             {
  87:main.c        ****                 status = TRANSFER_CMPLT;
 115              		.loc 1 87 0
 116 0040 0020     		movs	r0, #0
 117              	.L3:
 118              	.LVL11:
  88:main.c        ****             }
  89:main.c        ****         }
  90:main.c        ****     }
  91:main.c        ****     
  92:main.c        ****     return status;}
 119              		.loc 1 92 0
 120              		@ sp needed
 121              	.LVL12:
 122              	.LVL13:
 123              	.LVL14:
 124 0042 70BD     		pop	{r4, r5, r6, pc}
 125              		.cfi_endproc
 126              	.LFE34:
 127              		.size	writeBuffer, .-writeBuffer
 128              		.section	.text.main,"ax",%progbits
 129              		.align	2
 130              		.global	main
 131              		.code	16
 132              		.thumb_func
 133              		.type	main, %function
 134              	main:
 135              	.LFB32:
ARM GAS  C:\Users\davis\AppData\Local\Temp\cc0pV1lW.s 			page 5


  41:main.c        ****     CyGlobalIntEnable; /* Enable global interrupts. */
 136              		.loc 1 41 0
 137              		.cfi_startproc
 138              		@ args = 0, pretend = 0, frame = 8
 139              		@ frame_needed = 0, uses_anonymous_args = 0
 140 0000 00B5     		push	{lr}
 141              		.cfi_def_cfa_offset 4
 142              		.cfi_offset 14, -4
 143 0002 83B0     		sub	sp, sp, #12
 144              		.cfi_def_cfa_offset 16
  42:main.c        ****     int errorFlag;
 145              		.loc 1 42 0
 146              		.syntax divided
 147              	@ 42 "main.c" 1
 148 0004 62B6     		CPSIE   i
 149              	@ 0 "" 2
  46:main.c        ****     I2C_Enable();
 150              		.loc 1 46 0
 151              		.thumb
 152              		.syntax unified
 153 0006 FFF7FEFF 		bl	I2C_Start
 154              	.LVL15:
  47:main.c        ****     
 155              		.loc 1 47 0
 156 000a FFF7FEFF 		bl	I2C_Enable
 157              	.LVL16:
  55:main.c        ****     writeBuffer(buffer, PCA9685ADDY, I2C_I2C_MODE_COMPLETE_XFER);
 158              		.loc 1 55 0
 159 000e 0522     		movs	r2, #5
 160 0010 0749     		ldr	r1, .L10
 161 0012 6846     		mov	r0, sp
 162 0014 FFF7FEFF 		bl	memcpy
 163              	.LVL17:
  56:main.c        ****     for(;;)
 164              		.loc 1 56 0
 165 0018 0022     		movs	r2, #0
 166 001a 4021     		movs	r1, #64
 167 001c 6846     		mov	r0, sp
 168 001e FFF7FEFF 		bl	writeBuffer
 169              	.LVL18:
 170              	.L9:
  60:main.c        ****     }
 171              		.loc 1 60 0 discriminator 1
 172 0022 0022     		movs	r2, #0
 173 0024 4021     		movs	r1, #64
 174 0026 6846     		mov	r0, sp
 175 0028 FFF7FEFF 		bl	writeBuffer
 176              	.LVL19:
 177 002c F9E7     		b	.L9
 178              	.L11:
 179 002e C046     		.align	2
 180              	.L10:
 181 0030 00000000 		.word	.LANCHOR0
 182              		.cfi_endproc
 183              	.LFE32:
 184              		.size	main, .-main
 185              		.section	.text.ToggleLed,"ax",%progbits
ARM GAS  C:\Users\davis\AppData\Local\Temp\cc0pV1lW.s 			page 6


 186              		.align	2
 187              		.global	ToggleLed
 188              		.code	16
 189              		.thumb_func
 190              		.type	ToggleLed, %function
 191              	ToggleLed:
 192              	.LFB35:
  93:main.c        **** 
  94:main.c        **** void ToggleLed(uint32_t PCA9685Address, int ledN, int dutyCycle){
 193              		.loc 1 94 0
 194              		.cfi_startproc
 195              		@ args = 0, pretend = 0, frame = 8
 196              		@ frame_needed = 0, uses_anonymous_args = 0
 197              	.LVL20:
 198 0000 30B5     		push	{r4, r5, lr}
 199              		.cfi_def_cfa_offset 12
 200              		.cfi_offset 4, -12
 201              		.cfi_offset 5, -8
 202              		.cfi_offset 14, -4
 203 0002 83B0     		sub	sp, sp, #12
 204              		.cfi_def_cfa_offset 24
 205 0004 0500     		movs	r5, r0
 206              	.LVL21:
  95:main.c        ****      uint32 status = TRANSFER_ERROR;
  96:main.c        **** 
  97:main.c        ****     uint8 buffer[bufferSize] = {0,0};
  98:main.c        ****     switch (ledN){
 207              		.loc 1 98 0
 208 0006 0029     		cmp	r1, #0
 209 0008 0BD1     		bne	.L12
  99:main.c        ****     case LED0: 
 100:main.c        ****        buffer[0] = (0x06);
 210              		.loc 1 100 0
 211 000a 01AC     		add	r4, sp, #4
 212 000c 0623     		movs	r3, #6
 213 000e 2370     		strb	r3, [r4]
 101:main.c        ****        buffer[1] = TurnOnTime(dutyCycle);
 214              		.loc 1 101 0
 215 0010 1000     		movs	r0, r2
 216              	.LVL22:
 217 0012 FFF7FEFF 		bl	TurnOnTime
 218              	.LVL23:
 219 0016 6070     		strb	r0, [r4, #1]
 102:main.c        ****        writeBuffer(buffer, PCA9685Address, I2C_I2C_MODE_NO_STOP);
 220              		.loc 1 102 0
 221 0018 0222     		movs	r2, #2
 222 001a 2900     		movs	r1, r5
 223 001c 2000     		movs	r0, r4
 224 001e FFF7FEFF 		bl	writeBuffer
 225              	.LVL24:
 226              	.L12:
 103:main.c        ****        buffer[1] = TurnOnTime(dutyCycle);
 104:main.c        ****        //buffer[1] = TurnOffTime(dutyCyle);
 105:main.c        ****    
 106:main.c        ****     }
 107:main.c        ****        
 108:main.c        **** }
ARM GAS  C:\Users\davis\AppData\Local\Temp\cc0pV1lW.s 			page 7


 227              		.loc 1 108 0
 228 0022 03B0     		add	sp, sp, #12
 229              		@ sp needed
 230              	.LVL25:
 231 0024 30BD     		pop	{r4, r5, pc}
 232              		.cfi_endproc
 233              	.LFE35:
 234              		.size	ToggleLed, .-ToggleLed
 235 0026 C046     		.section	.rodata
 236              		.align	2
 237              		.set	.LANCHOR0,. + 0
 238              	.LC0:
 239 0000 06       		.byte	6
 240 0001 00       		.byte	0
 241 0002 00       		.byte	0
 242 0003 80       		.byte	-128
 243 0004 03       		.byte	3
 244              		.text
 245              	.Letext0:
 246              		.file 2 "c:\\program files (x86)\\cypress\\psoc creator\\4.4\\psoc creator\\import\\gnu\\arm\\5.4.
 247              		.file 3 "c:\\program files (x86)\\cypress\\psoc creator\\4.4\\psoc creator\\import\\gnu\\arm\\5.4.
 248              		.file 4 "Generated_Source\\PSoC4/cytypes.h"
 249              		.file 5 "Generated_Source\\PSoC4/I2C_I2C.h"
 250              		.file 6 "Generated_Source\\PSoC4/I2C.h"